target datalayout = "e-m:e-p270:32:32-p271:32:32-p272:64:64-i64:64-i128:128-f80:128-n8:16:32:64-S128"
target triple = "x86_64-pc-linux-gnu"

%union.pthread_mutex_t = type { %struct.__pthread_mutex_s }
%struct.__pthread_mutex_s = type { i32, i32, i32, i32, i32, i16, i16, %struct.__pthread_internal_list }
%struct.__pthread_internal_list = type { ptr, ptr }
%struct.uid_cache_entry_t = type { i32, ptr }

@.str = private unnamed_addr constant [6 x i8] c"uid.c\00", align 1
@uid_lock = internal global %union.pthread_mutex_t zeroinitializer, align 8
@.str.9 = private unnamed_addr constant [29 x i8] c"%s: pthread_mutex_lock(): %m\00", align 1
@uid_cache_used = internal global i32 0, align 4
@uid_cache = internal global ptr null, align 8
@.str.10 = private unnamed_addr constant [31 x i8] c"%s: pthread_mutex_unlock(): %m\00", align 1
@__func__.uid_to_string_cached = private unnamed_addr constant [21 x i8] c"uid_to_string_cached\00", align 1

; Function Attrs: inlinehint nounwind uwtable
define available_externally ptr @bsearch(ptr noundef nonnull %0, ptr noundef nonnull %1, i64 noundef %2, i64 noundef %3, ptr noundef nonnull %4) #7 {
  %6 = alloca ptr, align 8
  %7 = alloca ptr, align 8
  %8 = alloca ptr, align 8
  %9 = alloca i64, align 8
  %10 = alloca i64, align 8
  %11 = alloca ptr, align 8
  %12 = alloca i64, align 8
  %13 = alloca i64, align 8
  %14 = alloca i64, align 8
  %15 = alloca ptr, align 8
  %16 = alloca i32, align 4
  %17 = alloca i32, align 4
  store ptr %0, ptr %7, align 8
  store ptr %1, ptr %8, align 8
  store i64 %2, ptr %9, align 8
  store i64 %3, ptr %10, align 8
  store ptr %4, ptr %11, align 8
  call void @llvm.lifetime.start.p0(i64 8, ptr %12) #9
  call void @llvm.lifetime.start.p0(i64 8, ptr %13) #9
  call void @llvm.lifetime.start.p0(i64 8, ptr %14) #9
  call void @llvm.lifetime.start.p0(i64 8, ptr %15) #9
  call void @llvm.lifetime.start.p0(i64 4, ptr %16) #9
  store i64 0, ptr %12, align 8
  %18 = load i64, ptr %9, align 8
  store i64 %18, ptr %13, align 8
  br label %19

19:                                               ; preds = %50, %5
  %20 = load i64, ptr %12, align 8
  %21 = load i64, ptr %13, align 8
  %22 = icmp ult i64 %20, %21
  br i1 %22, label %23, label %51

23:                                               ; preds = %19
  %24 = load i64, ptr %12, align 8
  %25 = load i64, ptr %13, align 8
  %26 = add i64 %24, %25
  %27 = udiv i64 %26, 2
  store i64 %27, ptr %14, align 8
  %28 = load ptr, ptr %8, align 8
  %29 = load i64, ptr %14, align 8
  %30 = load i64, ptr %10, align 8
  %31 = mul i64 %29, %30
  %32 = getelementptr inbounds nuw i8, ptr %28, i64 %31
  store ptr %32, ptr %15, align 8
  %33 = load ptr, ptr %11, align 8
  %34 = load ptr, ptr %7, align 8
  %35 = load ptr, ptr %15, align 8
  %36 = call i32 %33(ptr noundef %34, ptr noundef %35)
  store i32 %36, ptr %16, align 4
  %37 = load i32, ptr %16, align 4
  %38 = icmp slt i32 %37, 0
  br i1 %38, label %39, label %41

39:                                               ; preds = %23
  %40 = load i64, ptr %14, align 8
  store i64 %40, ptr %13, align 8
  br label %50

41:                                               ; preds = %23
  %42 = load i32, ptr %16, align 4
  %43 = icmp sgt i32 %42, 0
  br i1 %43, label %44, label %47

44:                                               ; preds = %41
  %45 = load i64, ptr %14, align 8
  %46 = add i64 %45, 1
  store i64 %46, ptr %12, align 8
  br label %49

47:                                               ; preds = %41
  %48 = load ptr, ptr %15, align 8
  store ptr %48, ptr %6, align 8
  store i32 1, ptr %17, align 4
  br label %52

49:                                               ; preds = %44
  br label %50

50:                                               ; preds = %49, %39
  br label %19, !llvm.loop !13

51:                                               ; preds = %19
  store ptr null, ptr %6, align 8
  store i32 1, ptr %17, align 4
  br label %52

52:                                               ; preds = %51, %47
  call void @llvm.lifetime.end.p0(i64 4, ptr %16) #9
  call void @llvm.lifetime.end.p0(i64 8, ptr %15) #9
  call void @llvm.lifetime.end.p0(i64 8, ptr %14) #9
  call void @llvm.lifetime.end.p0(i64 8, ptr %13) #9
  call void @llvm.lifetime.end.p0(i64 8, ptr %12) #9
  %53 = load ptr, ptr %6, align 8
  ret ptr %53
}

; Function Attrs: nounwind uwtable
define dso_local ptr @uid_to_string_cached(i32 noundef %0) #0 {
  %2 = alloca ptr, align 8
  %3 = alloca i32, align 4
  %4 = alloca ptr, align 8
  %5 = alloca %struct.uid_cache_entry_t, align 8
  %6 = alloca i32, align 4
  %7 = alloca %struct.uid_cache_entry_t, align 8
  %8 = alloca i32, align 4
  %9 = alloca i32, align 4
  %10 = alloca i32, align 4
  store i32 %0, ptr %3, align 4
  call void @llvm.lifetime.start.p0(i64 8, ptr %4) #9
  call void @llvm.lifetime.start.p0(i64 16, ptr %5) #9
  %11 = getelementptr inbounds nuw %struct.uid_cache_entry_t, ptr %5, i32 0, i32 0
  %12 = load i32, ptr %3, align 4
  store i32 %12, ptr %11, align 8
  %13 = getelementptr i8, ptr %5, i64 4
  call void @llvm.memset.p0.i64(ptr align 4 %13, i8 0, i64 4, i1 false)
  %14 = getelementptr inbounds nuw %struct.uid_cache_entry_t, ptr %5, i32 0, i32 1
  store ptr null, ptr %14, align 8
  br label %15

15:                                               ; preds = %1
  call void @llvm.lifetime.start.p0(i64 4, ptr %6) #9
  %16 = call i32 @pthread_mutex_lock(ptr noundef @uid_lock) #9
  store i32 %16, ptr %6, align 4
  %17 = load i32, ptr %6, align 4
  %18 = icmp ne i32 %17, 0
  br i1 %18, label %19, label %22

19:                                               ; preds = %15
  %20 = load i32, ptr %6, align 4
  %21 = call ptr @__errno_location() #10
  store i32 %20, ptr %21, align 4
  call void (ptr, ...) @fatal_abort(ptr noundef @.str.9, ptr noundef @__func__.uid_to_string_cached) #11
  unreachable

22:                                               ; preds = %15
  call void @llvm.lifetime.end.p0(i64 4, ptr %6) #9
  br label %23

23:                                               ; preds = %22
  br label %24

24:                                               ; preds = %23
  %25 = load ptr, ptr @uid_cache, align 8
  %26 = load i32, ptr @uid_cache_used, align 4
  %27 = sext i32 %26 to i64
  %28 = call ptr @bsearch(ptr noundef %5, ptr noundef %25, i64 noundef %27, i64 noundef 16, ptr noundef @slurm_sort_uint16_list_asc)
  store ptr %28, ptr %4, align 8
  %29 = load ptr, ptr %4, align 8
  %30 = icmp eq ptr %29, null
  br i1 %30, label %31, label %64

31:                                               ; preds = %24
  call void @llvm.lifetime.start.p0(i64 16, ptr %7) #9
  %32 = getelementptr inbounds nuw %struct.uid_cache_entry_t, ptr %7, i32 0, i32 0
  %33 = load i32, ptr %3, align 4
  store i32 %33, ptr %32, align 8
  %34 = getelementptr i8, ptr %7, i64 4
  call void @llvm.memset.p0.i64(ptr align 4 %34, i8 0, i64 4, i1 false)
  %35 = getelementptr inbounds nuw %struct.uid_cache_entry_t, ptr %7, i32 0, i32 1
  %36 = load i32, ptr %3, align 4
  %37 = call ptr @uid_to_string(i32 noundef %36)
  store ptr %37, ptr %35, align 8
  %38 = load i32, ptr @uid_cache_used, align 4
  %39 = add nsw i32 %38, 1
  store i32 %39, ptr @uid_cache_used, align 4
  %40 = load i32, ptr @uid_cache_used, align 4
  %41 = sext i32 %40 to i64
  %42 = mul i64 16, %41
  %43 = call ptr @slurm_xrecalloc(ptr noundef @uid_cache, i64 noundef 1, i64 noundef %42, i1 noundef zeroext true, i1 noundef zeroext false, ptr noundef @.str, i32 noundef 235, ptr noundef @__func__.uid_to_string_cached)
  store ptr %43, ptr @uid_cache, align 8
  %44 = load ptr, ptr @uid_cache, align 8
  %45 = load i32, ptr @uid_cache_used, align 4
  %46 = sub nsw i32 %45, 1
  %47 = sext i32 %46 to i64
  %48 = getelementptr inbounds %struct.uid_cache_entry_t, ptr %44, i64 %47
  call void @llvm.memcpy.p0.p0.i64(ptr align 8 %48, ptr align 8 %7, i64 16, i1 false)
  %49 = load ptr, ptr @uid_cache, align 8
  %50 = load i32, ptr @uid_cache_used, align 4
  %51 = sext i32 %50 to i64
  call void @qsort(ptr noundef %49, i64 noundef %51, i64 noundef 16, ptr noundef @slurm_sort_uint16_list_asc)
  br label %52

52:                                               ; preds = %31
  call void @llvm.lifetime.start.p0(i64 4, ptr %8) #9
  %53 = call i32 @pthread_mutex_unlock(ptr noundef @uid_lock) #9
  store i32 %53, ptr %8, align 4
  %54 = load i32, ptr %8, align 4
  %55 = icmp ne i32 %54, 0
  br i1 %55, label %56, label %59

56:                                               ; preds = %52
  %57 = load i32, ptr %8, align 4
  %58 = call ptr @__errno_location() #10
  store i32 %57, ptr %58, align 4
  call void (ptr, ...) @fatal_abort(ptr noundef @.str.10, ptr noundef @__func__.uid_to_string_cached) #11
  unreachable

59:                                               ; preds = %52
  call void @llvm.lifetime.end.p0(i64 4, ptr %8) #9
  br label %60

60:                                               ; preds = %59
  br label %61

61:                                               ; preds = %60
  %62 = getelementptr inbounds nuw %struct.uid_cache_entry_t, ptr %7, i32 0, i32 1
  %63 = load ptr, ptr %62, align 8
  store ptr %63, ptr %2, align 8
  store i32 1, ptr %9, align 4
  call void @llvm.lifetime.end.p0(i64 16, ptr %7) #9
  br label %78

64:                                               ; preds = %24
  br label %65

65:                                               ; preds = %64
  call void @llvm.lifetime.start.p0(i64 4, ptr %10) #9
  %66 = call i32 @pthread_mutex_unlock(ptr noundef @uid_lock) #9
  store i32 %66, ptr %10, align 4
  %67 = load i32, ptr %10, align 4
  %68 = icmp ne i32 %67, 0
  br i1 %68, label %69, label %72

69:                                               ; preds = %65
  %70 = load i32, ptr %10, align 4
  %71 = call ptr @__errno_location() #10
  store i32 %70, ptr %71, align 4
  call void (ptr, ...) @fatal_abort(ptr noundef @.str.10, ptr noundef @__func__.uid_to_string_cached) #11
  unreachable

72:                                               ; preds = %65
  call void @llvm.lifetime.end.p0(i64 4, ptr %10) #9
  br label %73

73:                                               ; preds = %72
  br label %74

74:                                               ; preds = %73
  %75 = load ptr, ptr %4, align 8
  %76 = getelementptr inbounds nuw %struct.uid_cache_entry_t, ptr %75, i32 0, i32 1
  %77 = load ptr, ptr %76, align 8
  store ptr %77, ptr %2, align 8
  store i32 1, ptr %9, align 4
  br label %78

78:                                               ; preds = %74, %61
  call void @llvm.lifetime.end.p0(i64 16, ptr %5) #9
  call void @llvm.lifetime.end.p0(i64 8, ptr %4) #9
  %79 = load ptr, ptr %2, align 8
  ret ptr %79
}