; Function Attrs: nounwind uwtable
define dso_local ptr @uid_to_string_cached(i32 noundef %0) local_unnamed_addr #0 {
  %2 = alloca %struct.uid_cache_entry_t, align 8
  call void @llvm.lifetime.start.p0(i64 16, ptr nonnull %2) #10
  store i32 %0, ptr %2, align 8
  %3 = getelementptr inbounds nuw i8, ptr %2, i64 4
  store i32 0, ptr %3, align 4
  %4 = getelementptr inbounds nuw i8, ptr %2, i64 8
  store ptr null, ptr %4, align 8
  %5 = tail call i32 @pthread_mutex_lock(ptr noundef nonnull @uid_lock) #10
  %.not = icmp eq i32 %5, 0
  br i1 %.not, label %8, label %6

6:                                                ; preds = %1
  %7 = tail call ptr @__errno_location() #11
  store i32 %5, ptr %7, align 4
  tail call void (ptr, ...) @fatal_abort(ptr noundef nonnull @.str.9, ptr noundef nonnull @__func__.uid_to_string_cached) #12
  unreachable

8:                                                ; preds = %1
  %9 = load ptr, ptr @uid_cache, align 8
  %10 = load i32, ptr @uid_cache_used, align 4
  %.not24.i = icmp eq i32 %10, 0
  br i1 %.not24.i, label %.loopexit, label %.lr.ph.i.preheader

.lr.ph.i.preheader:                               ; preds = %8
  %11 = sext i32 %10 to i64
  br label %.lr.ph.i

.lr.ph.i:                                         ; preds = %.lr.ph.i.preheader, %21
  %.01621.i = phi i64 [ %.1.i, %21 ], [ 0, %.lr.ph.i.preheader ]
  %.01720.i = phi i64 [ %.118.i, %21 ], [ %11, %.lr.ph.i.preheader ]
  %12 = add i64 %.01720.i, %.01621.i
  %13 = lshr i64 %12, 1
  %14 = shl i64 %13, 4
  %15 = getelementptr inbounds nuw i8, ptr %9, i64 %14
  %16 = call i32 @slurm_sort_uint16_list_asc(ptr noundef nonnull %2, ptr noundef nonnull %15) #10
  %17 = icmp slt i32 %16, 0
  br i1 %17, label %21, label %18

18:                                               ; preds = %.lr.ph.i
  %.not.i = icmp eq i32 %16, 0
  br i1 %.not.i, label %bsearch.exit, label %19

19:                                               ; preds = %18
  %20 = add nuw i64 %13, 1
  br label %21

21:                                               ; preds = %19, %.lr.ph.i
  %.118.i = phi i64 [ %.01720.i, %19 ], [ %13, %.lr.ph.i ]
  %.1.i = phi i64 [ %20, %19 ], [ %.01621.i, %.lr.ph.i ]
  %22 = icmp ult i64 %.1.i, %.118.i
  br i1 %22, label %.lr.ph.i, label %.loopexit, !llvm.loop !13

.loopexit:                                        ; preds = %21, %8
  %23 = call ptr @uid_to_string(i32 noundef %0)
  %24 = load i32, ptr @uid_cache_used, align 4
  %25 = add nsw i32 %24, 1
  store i32 %25, ptr @uid_cache_used, align 4
  %26 = sext i32 %25 to i64
  %27 = shl nsw i64 %26, 4
  %28 = call ptr @slurm_xrecalloc(ptr noundef nonnull @uid_cache, i64 noundef 1, i64 noundef %27, i1 noundef zeroext true, i1 noundef zeroext false, ptr noundef nonnull @.str, i32 noundef 235, ptr noundef nonnull @__func__.uid_to_string_cached) #10
  store ptr %28, ptr @uid_cache, align 8
  %29 = load i32, ptr @uid_cache_used, align 4
  %30 = sext i32 %29 to i64
  %31 = getelementptr %struct.uid_cache_entry_t, ptr %28, i64 %30
  %32 = getelementptr i8, ptr %31, i64 -16
  store i32 %0, ptr %32, align 8
  %.sroa.4.0..sroa_idx = getelementptr i8, ptr %31, i64 -12
  store i32 0, ptr %.sroa.4.0..sroa_idx, align 4
  %.sroa.5.0..sroa_idx = getelementptr i8, ptr %31, i64 -8
  store ptr %23, ptr %.sroa.5.0..sroa_idx, align 8
  %33 = load ptr, ptr @uid_cache, align 8
  call void @qsort(ptr noundef %33, i64 noundef %30, i64 noundef 16, ptr noundef nonnull @slurm_sort_uint16_list_asc) #10
  %34 = call i32 @pthread_mutex_unlock(ptr noundef nonnull @uid_lock) #10
  %.not16 = icmp eq i32 %34, 0
  br i1 %.not16, label %43, label %35

35:                                               ; preds = %.loopexit
  %36 = tail call ptr @__errno_location() #11
  store i32 %34, ptr %36, align 4
  call void (ptr, ...) @fatal_abort(ptr noundef nonnull @.str.10, ptr noundef nonnull @__func__.uid_to_string_cached) #12
  unreachable

bsearch.exit:                                     ; preds = %18
  %37 = call i32 @pthread_mutex_unlock(ptr noundef nonnull @uid_lock) #10
  %.not15 = icmp eq i32 %37, 0
  br i1 %.not15, label %40, label %38

38:                                               ; preds = %bsearch.exit
  %39 = tail call ptr @__errno_location() #11
  store i32 %37, ptr %39, align 4
  call void (ptr, ...) @fatal_abort(ptr noundef nonnull @.str.10, ptr noundef nonnull @__func__.uid_to_string_cached) #12
  unreachable

40:                                               ; preds = %bsearch.exit
  %41 = getelementptr inbounds nuw i8, ptr %15, i64 8
  %42 = load ptr, ptr %41, align 8
  br label %43

43:                                               ; preds = %.loopexit, %40
  %.0 = phi ptr [ %42, %40 ], [ %23, %.loopexit ]
  call void @llvm.lifetime.end.p0(i64 16, ptr nonnull %2) #10
  ret ptr %.0
}